; Function Attrs: mustprogress uwtable
define void @_ZN6google8protobuf8compiler3cpp9ClassNameB5cxx11EPKNS0_14EnumDescriptorE(ptr noalias sret(%"class.std::__cxx11::basic_string") align 8 %agg.result, ptr nocapture noundef readonly %enum_descriptor) local_unnamed_addr #4 personality ptr @__gxx_personality_v0 {
entry:
  %ref.tmp = alloca %"class.absl::lts_20230802::AlphaNum", align 8
  %ref.tmp3 = alloca %"class.std::__cxx11::basic_string", align 8
  %ref.tmp5 = alloca %"class.absl::lts_20230802::AlphaNum", align 8
  %ref.tmp7 = alloca %"class.absl::lts_20230802::AlphaNum", align 8
  %containing_type_.i = getelementptr inbounds i8, ptr %enum_descriptor, i64 24
  %0 = load ptr, ptr %containing_type_.i, align 8
  %cmp = icmp eq ptr %0, null
  br i1 %cmp, label %if.then, label %invoke.cont6

if.then:                                          ; preds = %entry
  %all_names_.i = getelementptr inbounds i8, ptr %enum_descriptor, i64 8
  %1 = load ptr, ptr %all_names_.i, align 8
  %call2 = tail call { i64, ptr } @_ZNKSt7__cxx1112basic_stringIcSt11char_traitsIcESaIcEEcvSt17basic_string_viewIcS2_EEv(ptr noundef nonnull align 8 dereferenceable(32) %1) #26
  %2 = extractvalue { i64, ptr } %call2, 0
  %3 = extractvalue { i64, ptr } %call2, 1
  tail call void @_ZN6google8protobuf8compiler3cpp14ResolveKeywordB5cxx11ESt17basic_string_viewIcSt11char_traitsIcEE(ptr sret(%"class.std::__cxx11::basic_string") align 8 %agg.result, i64 %2, ptr %3)
  br label %return

invoke.cont6:                                     ; preds = %entry
  call void @_ZN6google8protobuf8compiler3cpp9ClassNameB5cxx11EPKNS0_10DescriptorE(ptr nonnull sret(%"class.std::__cxx11::basic_string") align 8 %ref.tmp3, ptr noundef nonnull %0)
  %call.i = call { i64, ptr } @_ZNKSt7__cxx1112basic_stringIcSt11char_traitsIcESaIcEEcvSt17basic_string_viewIcS2_EEv(ptr noundef nonnull align 8 dereferenceable(32) %ref.tmp3) #26
  %4 = extractvalue { i64, ptr } %call.i, 0
  store i64 %4, ptr %ref.tmp, align 8
  %5 = getelementptr inbounds i8, ptr %ref.tmp, i64 8
  %6 = extractvalue { i64, ptr } %call.i, 1
  store ptr %6, ptr %5, align 8
  store i64 1, ptr %ref.tmp5, align 8
  %7 = getelementptr inbounds i8, ptr %ref.tmp5, i64 8
  store ptr @.str.32, ptr %7, align 8
  %all_names_.i5 = getelementptr inbounds i8, ptr %enum_descriptor, i64 8
  %8 = load ptr, ptr %all_names_.i5, align 8
  %call.i6 = call { i64, ptr } @_ZNKSt7__cxx1112basic_stringIcSt11char_traitsIcESaIcEEcvSt17basic_string_viewIcS2_EEv(ptr noundef nonnull align 8 dereferenceable(32) %8) #26
  %9 = extractvalue { i64, ptr } %call.i6, 0
  store i64 %9, ptr %ref.tmp7, align 8
  %10 = getelementptr inbounds i8, ptr %ref.tmp7, i64 8
  %11 = extractvalue { i64, ptr } %call.i6, 1
  store ptr %11, ptr %10, align 8
  invoke void @_ZN4absl12lts_202308026StrCatB5cxx11ERKNS0_8AlphaNumES3_S3_(ptr sret(%"class.std::__cxx11::basic_string") align 8 %agg.result, ptr noundef nonnull align 8 dereferenceable(48) %ref.tmp, ptr noundef nonnull align 8 dereferenceable(48) %ref.tmp5, ptr noundef nonnull align 8 dereferenceable(48) %ref.tmp7)
          to label %invoke.cont11 unwind label %lpad

invoke.cont11:                                    ; preds = %invoke.cont6
  call void @_ZNSt7__cxx1112basic_stringIcSt11char_traitsIcESaIcEED1Ev(ptr noundef nonnull align 8 dereferenceable(32) %ref.tmp3) #26
  br label %return

lpad:                                             ; preds = %invoke.cont6
  %12 = landingpad { ptr, i32 }
          cleanup
  call void @_ZNSt7__cxx1112basic_stringIcSt11char_traitsIcESaIcEED1Ev(ptr noundef nonnull align 8 dereferenceable(32) %ref.tmp3) #26
  resume { ptr, i32 } %12

return:                                           ; preds = %invoke.cont11, %if.then
  ret void
}